; ModuleID = '32/1424.c'
source_filename = "32/1424.c"
target datalayout = "e-m:e-p270:32:32-p271:32:32-p272:64:64-i64:64-f80:128-n8:16:32:64-S128"
target triple = "x86_64-pc-linux-gnu"

@.str = private unnamed_addr constant [4 x i8] c"%d\0A\00", align 1
@.str.1 = private unnamed_addr constant [2 x i8] c"\0A\00", align 1

; Function Attrs: noinline nounwind uwtable
define dso_local void @main() #0 {
  %1 = alloca i32, align 4
  %2 = alloca i32, align 4
  %3 = alloca i32, align 4
  %4 = alloca i32, align 4
  %5 = alloca i32, align 4
  %6 = alloca i32, align 4
  %7 = alloca [100 x [100 x i8]], align 16
  %8 = alloca [100 x [100 x i8]], align 16
  %9 = alloca [100 x [100 x i8]], align 16
  %10 = bitcast [100 x [100 x i8]]* %9 to i8*
  call void @llvm.memset.p0i8.i64(i8* align 16 %10, i8 0, i64 10000, i1 false)
  %11 = call i32 (i8*, ...) @__isoc99_scanf(i8* getelementptr inbounds ([4 x i8], [4 x i8]* @.str, i64 0, i64 0), i32* %1)
  %12 = getelementptr inbounds [100 x [100 x i8]], [100 x [100 x i8]]* %7, i64 0, i64 0
  %13 = getelementptr inbounds [100 x i8], [100 x i8]* %12, i64 0, i64 0
  %14 = call i32 (i8*, ...) bitcast (i32 (...)* @gets to i32 (i8*, ...)*)(i8* %13)
  %15 = getelementptr inbounds [100 x [100 x i8]], [100 x [100 x i8]]* %8, i64 0, i64 0
  %16 = getelementptr inbounds [100 x i8], [100 x i8]* %15, i64 0, i64 0
  %17 = call i32 (i8*, ...) bitcast (i32 (...)* @gets to i32 (i8*, ...)*)(i8* %16)
  store i32 1, i32* %2, align 4
  br label %18

18:                                               ; preds = %34, %0
  %19 = load i32, i32* %2, align 4
  %20 = load i32, i32* %1, align 4
  %21 = icmp slt i32 %19, %20
  br i1 %21, label %22, label %37

22:                                               ; preds = %18
  %23 = call i32 (i8*, ...) @__isoc99_scanf(i8* getelementptr inbounds ([2 x i8], [2 x i8]* @.str.1, i64 0, i64 0))
  %24 = load i32, i32* %2, align 4
  %25 = sext i32 %24 to i64
  %26 = getelementptr inbounds [100 x [100 x i8]], [100 x [100 x i8]]* %7, i64 0, i64 %25
  %27 = getelementptr inbounds [100 x i8], [100 x i8]* %26, i64 0, i64 0
  %28 = call i32 (i8*, ...) bitcast (i32 (...)* @gets to i32 (i8*, ...)*)(i8* %27)
  %29 = load i32, i32* %2, align 4
  %30 = sext i32 %29 to i64
  %31 = getelementptr inbounds [100 x [100 x i8]], [100 x [100 x i8]]* %8, i64 0, i64 %30
  %32 = getelementptr inbounds [100 x i8], [100 x i8]* %31, i64 0, i64 0
  %33 = call i32 (i8*, ...) bitcast (i32 (...)* @gets to i32 (i8*, ...)*)(i8* %32)
  br label %34

34:                                               ; preds = %22
  %35 = load i32, i32* %2, align 4
  %36 = add nsw i32 %35, 1
  store i32 %36, i32* %2, align 4
  br label %18

37:                                               ; preds = %18
  store i32 0, i32* %2, align 4
  br label %38

38:                                               ; preds = %266, %37
  %39 = load i32, i32* %2, align 4
  %40 = load i32, i32* %1, align 4
  %41 = icmp slt i32 %39, %40
  br i1 %41, label %42, label %269

42:                                               ; preds = %38
  %43 = load i32, i32* %2, align 4
  %44 = sext i32 %43 to i64
  %45 = getelementptr inbounds [100 x [100 x i8]], [100 x [100 x i8]]* %7, i64 0, i64 %44
  %46 = getelementptr inbounds [100 x i8], [100 x i8]* %45, i64 0, i64 0
  %47 = call i64 @strlen(i8* %46) #4
  %48 = trunc i64 %47 to i32
  store i32 %48, i32* %4, align 4
  %49 = load i32, i32* %2, align 4
  %50 = sext i32 %49 to i64
  %51 = getelementptr inbounds [100 x [100 x i8]], [100 x [100 x i8]]* %8, i64 0, i64 %50
  %52 = getelementptr inbounds [100 x i8], [100 x i8]* %51, i64 0, i64 0
  %53 = call i64 @strlen(i8* %52) #4
  %54 = trunc i64 %53 to i32
  store i32 %54, i32* %5, align 4
  %55 = load i32, i32* %4, align 4
  %56 = sub nsw i32 %55, 1
  store i32 %56, i32* %3, align 4
  br label %57

57:                                               ; preds = %200, %42
  %58 = load i32, i32* %3, align 4
  %59 = load i32, i32* %4, align 4
  %60 = load i32, i32* %5, align 4
  %61 = sub nsw i32 %59, %60
  %62 = icmp sge i32 %58, %61
  br i1 %62, label %63, label %203

63:                                               ; preds = %57
  %64 = load i32, i32* %2, align 4
  %65 = sext i32 %64 to i64
  %66 = getelementptr inbounds [100 x [100 x i8]], [100 x [100 x i8]]* %7, i64 0, i64 %65
  %67 = load i32, i32* %3, align 4
  %68 = sext i32 %67 to i64
  %69 = getelementptr inbounds [100 x i8], [100 x i8]* %66, i64 0, i64 %68
  %70 = load i8, i8* %69, align 1
  %71 = sext i8 %70 to i32
  %72 = load i32, i32* %2, align 4
  %73 = sext i32 %72 to i64
  %74 = getelementptr inbounds [100 x [100 x i8]], [100 x [100 x i8]]* %8, i64 0, i64 %73
  %75 = load i32, i32* %3, align 4
  %76 = load i32, i32* %4, align 4
  %77 = sub nsw i32 %75, %76
  %78 = load i32, i32* %5, align 4
  %79 = add nsw i32 %77, %78
  %80 = sext i32 %79 to i64
  %81 = getelementptr inbounds [100 x i8], [100 x i8]* %74, i64 0, i64 %80
  %82 = load i8, i8* %81, align 1
  %83 = sext i8 %82 to i32
  %84 = icmp sge i32 %71, %83
  br i1 %84, label %85, label %115

85:                                               ; preds = %63
  %86 = load i32, i32* %2, align 4
  %87 = sext i32 %86 to i64
  %88 = getelementptr inbounds [100 x [100 x i8]], [100 x [100 x i8]]* %7, i64 0, i64 %87
  %89 = load i32, i32* %3, align 4
  %90 = sext i32 %89 to i64
  %91 = getelementptr inbounds [100 x i8], [100 x i8]* %88, i64 0, i64 %90
  %92 = load i8, i8* %91, align 1
  %93 = sext i8 %92 to i32
  %94 = load i32, i32* %2, align 4
  %95 = sext i32 %94 to i64
  %96 = getelementptr inbounds [100 x [100 x i8]], [100 x [100 x i8]]* %8, i64 0, i64 %95
  %97 = load i32, i32* %3, align 4
  %98 = load i32, i32* %4, align 4
  %99 = sub nsw i32 %97, %98
  %100 = load i32, i32* %5, align 4
  %101 = add nsw i32 %99, %100
  %102 = sext i32 %101 to i64
  %103 = getelementptr inbounds [100 x i8], [100 x i8]* %96, i64 0, i64 %102
  %104 = load i8, i8* %103, align 1
  %105 = sext i8 %104 to i32
  %106 = sub nsw i32 %93, %105
  %107 = add nsw i32 %106, 48
  %108 = trunc i32 %107 to i8
  %109 = load i32, i32* %2, align 4
  %110 = sext i32 %109 to i64
  %111 = getelementptr inbounds [100 x [100 x i8]], [100 x [100 x i8]]* %7, i64 0, i64 %110
  %112 = load i32, i32* %3, align 4
  %113 = sext i32 %112 to i64
  %114 = getelementptr inbounds [100 x i8], [100 x i8]* %111, i64 0, i64 %113
  store i8 %108, i8* %114, align 1
  br label %199

115:                                              ; preds = %63
  %116 = load i32, i32* %2, align 4
  %117 = sext i32 %116 to i64
  %118 = getelementptr inbounds [100 x [100 x i8]], [100 x [100 x i8]]* %7, i64 0, i64 %117
  %119 = load i32, i32* %3, align 4
  %120 = sext i32 %119 to i64
  %121 = getelementptr inbounds [100 x i8], [100 x i8]* %118, i64 0, i64 %120
  %122 = load i8, i8* %121, align 1
  %123 = sext i8 %122 to i32
  %124 = add nsw i32 58, %123
  %125 = load i32, i32* %2, align 4
  %126 = sext i32 %125 to i64
  %127 = getelementptr inbounds [100 x [100 x i8]], [100 x [100 x i8]]* %8, i64 0, i64 %126
  %128 = load i32, i32* %3, align 4
  %129 = load i32, i32* %4, align 4
  %130 = sub nsw i32 %128, %129
  %131 = load i32, i32* %5, align 4
  %132 = add nsw i32 %130, %131
  %133 = sext i32 %132 to i64
  %134 = getelementptr inbounds [100 x i8], [100 x i8]* %127, i64 0, i64 %133
  %135 = load i8, i8* %134, align 1
  %136 = sext i8 %135 to i32
  %137 = sub nsw i32 %124, %136
  %138 = trunc i32 %137 to i8
  %139 = load i32, i32* %2, align 4
  %140 = sext i32 %139 to i64
  %141 = getelementptr inbounds [100 x [100 x i8]], [100 x [100 x i8]]* %7, i64 0, i64 %140
  %142 = load i32, i32* %3, align 4
  %143 = sext i32 %142 to i64
  %144 = getelementptr inbounds [100 x i8], [100 x i8]* %141, i64 0, i64 %143
  store i8 %138, i8* %144, align 1
  %145 = load i32, i32* %2, align 4
  %146 = sext i32 %145 to i64
  %147 = getelementptr inbounds [100 x [100 x i8]], [100 x [100 x i8]]* %7, i64 0, i64 %146
  %148 = load i32, i32* %3, align 4
  %149 = sub nsw i32 %148, 1
  %150 = sext i32 %149 to i64
  %151 = getelementptr inbounds [100 x i8], [100 x i8]* %147, i64 0, i64 %150
  %152 = load i8, i8* %151, align 1
  %153 = sext i8 %152 to i32
  %154 = icmp sgt i32 %153, 48
  br i1 %154, label %155, label %165

155:                                              ; preds = %115
  %156 = load i32, i32* %2, align 4
  %157 = sext i32 %156 to i64
  %158 = getelementptr inbounds [100 x [100 x i8]], [100 x [100 x i8]]* %7, i64 0, i64 %157
  %159 = load i32, i32* %3, align 4
  %160 = sub nsw i32 %159, 1
  %161 = sext i32 %160 to i64
  %162 = getelementptr inbounds [100 x i8], [100 x i8]* %158, i64 0, i64 %161
  %163 = load i8, i8* %162, align 1
  %164 = add i8 %163, -1
  store i8 %164, i8* %162, align 1
  br label %198

165:                                              ; preds = %115
  %166 = load i32, i32* %3, align 4
  store i32 %166, i32* %6, align 4
  br label %167

167:                                              ; preds = %178, %165
  %168 = load i32, i32* %2, align 4
  %169 = sext i32 %168 to i64
  %170 = getelementptr inbounds [100 x [100 x i8]], [100 x [100 x i8]]* %7, i64 0, i64 %169
  %171 = load i32, i32* %6, align 4
  %172 = sub nsw i32 %171, 1
  %173 = sext i32 %172 to i64
  %174 = getelementptr inbounds [100 x i8], [100 x i8]* %170, i64 0, i64 %173
  %175 = load i8, i8* %174, align 1
  %176 = sext i8 %175 to i32
  %177 = icmp eq i32 %176, 48
  br i1 %177, label %178, label %188

178:                                              ; preds = %167
  %179 = load i32, i32* %2, align 4
  %180 = sext i32 %179 to i64
  %181 = getelementptr inbounds [100 x [100 x i8]], [100 x [100 x i8]]* %7, i64 0, i64 %180
  %182 = load i32, i32* %6, align 4
  %183 = sub nsw i32 %182, 1
  %184 = sext i32 %183 to i64
  %185 = getelementptr inbounds [100 x i8], [100 x i8]* %181, i64 0, i64 %184
  store i8 57, i8* %185, align 1
  %186 = load i32, i32* %6, align 4
  %187 = add nsw i32 %186, -1
  store i32 %187, i32* %6, align 4
  br label %167

188:                                              ; preds = %167
  %189 = load i32, i32* %2, align 4
  %190 = sext i32 %189 to i64
  %191 = getelementptr inbounds [100 x [100 x i8]], [100 x [100 x i8]]* %7, i64 0, i64 %190
  %192 = load i32, i32* %6, align 4
  %193 = sub nsw i32 %192, 1
  %194 = sext i32 %193 to i64
  %195 = getelementptr inbounds [100 x i8], [100 x i8]* %191, i64 0, i64 %194
  %196 = load i8, i8* %195, align 1
  %197 = add i8 %196, -1
  store i8 %197, i8* %195, align 1
  br label %198

198:                                              ; preds = %188, %155
  br label %199

199:                                              ; preds = %198, %85
  br label %200

200:                                              ; preds = %199
  %201 = load i32, i32* %3, align 4
  %202 = add nsw i32 %201, -1
  store i32 %202, i32* %3, align 4
  br label %57

203:                                              ; preds = %57
  store i32 0, i32* %6, align 4
  store i32 0, i32* %3, align 4
  br label %204

204:                                              ; preds = %226, %203
  %205 = load i32, i32* %2, align 4
  %206 = sext i32 %205 to i64
  %207 = getelementptr inbounds [100 x [100 x i8]], [100 x [100 x i8]]* %7, i64 0, i64 %206
  %208 = load i32, i32* %3, align 4
  %209 = sext i32 %208 to i64
  %210 = getelementptr inbounds [100 x i8], [100 x i8]* %207, i64 0, i64 %209
  %211 = load i8, i8* %210, align 1
  %212 = sext i8 %211 to i32
  %213 = icmp ne i32 %212, 0
  br i1 %213, label %214, label %229

214:                                              ; preds = %204
  %215 = load i32, i32* %2, align 4
  %216 = sext i32 %215 to i64
  %217 = getelementptr inbounds [100 x [100 x i8]], [100 x [100 x i8]]* %7, i64 0, i64 %216
  %218 = load i32, i32* %3, align 4
  %219 = sext i32 %218 to i64
  %220 = getelementptr inbounds [100 x i8], [100 x i8]* %217, i64 0, i64 %219
  %221 = load i8, i8* %220, align 1
  %222 = sext i8 %221 to i32
  %223 = icmp ne i32 %222, 48
  br i1 %223, label %224, label %225

224:                                              ; preds = %214
  br label %229

225:                                              ; preds = %214
  br label %226

226:                                              ; preds = %225
  %227 = load i32, i32* %3, align 4
  %228 = add nsw i32 %227, 1
  store i32 %228, i32* %3, align 4
  br label %204

229:                                              ; preds = %224, %204
  %230 = load i32, i32* %3, align 4
  store i32 %230, i32* %3, align 4
  br label %231

231:                                              ; preds = %257, %229
  %232 = load i32, i32* %2, align 4
  %233 = sext i32 %232 to i64
  %234 = getelementptr inbounds [100 x [100 x i8]], [100 x [100 x i8]]* %7, i64 0, i64 %233
  %235 = load i32, i32* %3, align 4
  %236 = sext i32 %235 to i64
  %237 = getelementptr inbounds [100 x i8], [100 x i8]* %234, i64 0, i64 %236
  %238 = load i8, i8* %237, align 1
  %239 = sext i8 %238 to i32
  %240 = icmp ne i32 %239, 0
  br i1 %240, label %241, label %260

241:                                              ; preds = %231
  %242 = load i32, i32* %2, align 4
  %243 = sext i32 %242 to i64
  %244 = getelementptr inbounds [100 x [100 x i8]], [100 x [100 x i8]]* %7, i64 0, i64 %243
  %245 = load i32, i32* %3, align 4
  %246 = sext i32 %245 to i64
  %247 = getelementptr inbounds [100 x i8], [100 x i8]* %244, i64 0, i64 %246
  %248 = load i8, i8* %247, align 1
  %249 = load i32, i32* %2, align 4
  %250 = sext i32 %249 to i64
  %251 = getelementptr inbounds [100 x [100 x i8]], [100 x [100 x i8]]* %9, i64 0, i64 %250
  %252 = load i32, i32* %6, align 4
  %253 = sext i32 %252 to i64
  %254 = getelementptr inbounds [100 x i8], [100 x i8]* %251, i64 0, i64 %253
  store i8 %248, i8* %254, align 1
  %255 = load i32, i32* %6, align 4
  %256 = add nsw i32 %255, 1
  store i32 %256, i32* %6, align 4
  br label %257

257:                                              ; preds = %241
  %258 = load i32, i32* %3, align 4
  %259 = add nsw i32 %258, 1
  store i32 %259, i32* %3, align 4
  br label %231

260:                                              ; preds = %231
  %261 = load i32, i32* %2, align 4
  %262 = sext i32 %261 to i64
  %263 = getelementptr inbounds [100 x [100 x i8]], [100 x [100 x i8]]* %9, i64 0, i64 %262
  %264 = getelementptr inbounds [100 x i8], [100 x i8]* %263, i64 0, i64 0
  %265 = call i32 @puts(i8* %264)
  br label %266

266:                                              ; preds = %260
  %267 = load i32, i32* %2, align 4
  %268 = add nsw i32 %267, 1
  store i32 %268, i32* %2, align 4
  br label %38

269:                                              ; preds = %38
  ret void
}

; Function Attrs: argmemonly nounwind willreturn
declare void @llvm.memset.p0i8.i64(i8* nocapture writeonly, i8, i64, i1 immarg) #1

declare dso_local i32 @__isoc99_scanf(i8*, ...) #2

declare dso_local i32 @gets(...) #2

; Function Attrs: nounwind readonly
declare dso_local i64 @strlen(i8*) #3

declare dso_local i32 @puts(i8*) #2


!llvm.module.flags = !{!0}
!llvm.ident = !{!1}

!0 = !{i32 1, !"wchar_size", i32 4}
!1 = !{!"clang version 10.0.0-4ubuntu1 "}
